; Function Attrs: mustprogress uwtable
define hidden noundef i32 @_ZN19OpenColorIO_v2_4dev9CDLOpData12ConvertStyleENS_8CDLStyleENS_18TransformDirectionE(i32 noundef %style, i32 noundef %dir) local_unnamed_addr #3 align 2 personality ptr @__gxx_personality_v0 {
entry:
  %ss = alloca %"class.std::__cxx11::basic_stringstream", align 8
  %ref.tmp = alloca %"class.std::__cxx11::basic_string", align 8
  %ref.tmp4 = alloca %"class.std::allocator", align 1
  %ref.tmp11 = alloca %"class.std::__cxx11::basic_string", align 8
  %cmp = icmp ne i32 %dir, 0
  switch i32 %style, label %sw.epilog [
    i32 0, label %sw.bb
    i32 1, label %sw.bb1
  ]

sw.bb:                                            ; preds = %entry
  %cond = zext i1 %cmp to i32
  br label %return

sw.bb1:                                           ; preds = %entry
  %cond3 = select i1 %cmp, i32 3, i32 2
  br label %return

sw.epilog:                                        ; preds = %entry
  call void @_ZNSaIcEC1Ev(ptr noundef nonnull align 1 dereferenceable(1) %ref.tmp4) #19
  invoke void @_ZNSt7__cxx1112basic_stringIcSt11char_traitsIcESaIcEEC1EPKcRKS3_(ptr noundef nonnull align 8 dereferenceable(32) %ref.tmp, ptr noundef nonnull @.str.3, ptr noundef nonnull align 1 dereferenceable(1) %ref.tmp4)
          to label %invoke.cont unwind label %lpad

invoke.cont:                                      ; preds = %sw.epilog
  invoke void @_ZNSt7__cxx1118basic_stringstreamIcSt11char_traitsIcESaIcEEC1ERKNS_12basic_stringIcS2_S3_EESt13_Ios_Openmode(ptr noundef nonnull align 8 dereferenceable(128) %ss, ptr noundef nonnull align 8 dereferenceable(32) %ref.tmp, i32 noundef 24)
          to label %invoke.cont7 unwind label %lpad5

invoke.cont7:                                     ; preds = %invoke.cont
  call void @_ZNSt7__cxx1112basic_stringIcSt11char_traitsIcESaIcEED1Ev(ptr noundef nonnull align 8 dereferenceable(32) %ref.tmp) #19
  call void @_ZNSaIcED1Ev(ptr noundef nonnull align 1 dereferenceable(1) %ref.tmp4) #19
  %add.ptr = getelementptr inbounds i8, ptr %ss, i64 16
  %call10 = invoke noundef nonnull align 8 dereferenceable(8) ptr @_ZNSolsEi(ptr noundef nonnull align 8 dereferenceable(8) %add.ptr, i32 noundef %style)
          to label %invoke.cont9 unwind label %lpad8

invoke.cont9:                                     ; preds = %invoke.cont7
  %exception = call ptr @__cxa_allocate_exception(i64 16) #19
  invoke void @_ZNKSt7__cxx1118basic_stringstreamIcSt11char_traitsIcESaIcEE3strEv(ptr nonnull sret(%"class.std::__cxx11::basic_string") align 8 %ref.tmp11, ptr noundef nonnull align 8 dereferenceable(128) %ss)
          to label %invoke.cont13 unwind label %ehcleanup18.thread

invoke.cont13:                                    ; preds = %invoke.cont9
  %call14 = call noundef ptr @_ZNKSt7__cxx1112basic_stringIcSt11char_traitsIcESaIcEE5c_strEv(ptr noundef nonnull align 8 dereferenceable(32) %ref.tmp11) #19
  invoke void @_ZN19OpenColorIO_v2_4dev9ExceptionC1EPKc(ptr noundef nonnull align 8 dereferenceable(16) %exception, ptr noundef %call14)
          to label %invoke.cont16 unwind label %ehcleanup18.thread11

ehcleanup18.thread11:                             ; preds = %invoke.cont13
  %0 = landingpad { ptr, i32 }
          cleanup
  call void @_ZNSt7__cxx1112basic_stringIcSt11char_traitsIcESaIcEED1Ev(ptr noundef nonnull align 8 dereferenceable(32) %ref.tmp11) #19
  br label %cleanup.action

invoke.cont16:                                    ; preds = %invoke.cont13
  invoke void @__cxa_throw(ptr nonnull %exception, ptr nonnull @_ZTIN19OpenColorIO_v2_4dev9ExceptionE, ptr nonnull @_ZN19OpenColorIO_v2_4dev9ExceptionD1Ev) #20
          to label %unreachable unwind label %ehcleanup18

lpad:                                             ; preds = %sw.epilog
  %1 = landingpad { ptr, i32 }
          cleanup
  br label %ehcleanup

lpad5:                                            ; preds = %invoke.cont
  %2 = landingpad { ptr, i32 }
          cleanup
  call void @_ZNSt7__cxx1112basic_stringIcSt11char_traitsIcESaIcEED1Ev(ptr noundef nonnull align 8 dereferenceable(32) %ref.tmp) #19
  br label %ehcleanup

ehcleanup:                                        ; preds = %lpad5, %lpad
  %.pn = phi { ptr, i32 } [ %2, %lpad5 ], [ %1, %lpad ]
  call void @_ZNSaIcED1Ev(ptr noundef nonnull align 1 dereferenceable(1) %ref.tmp4) #19
  br label %eh.resume

lpad8:                                            ; preds = %invoke.cont7
  %3 = landingpad { ptr, i32 }
          cleanup
  br label %ehcleanup19

ehcleanup18.thread:                               ; preds = %invoke.cont9
  %4 = landingpad { ptr, i32 }
          cleanup
  br label %cleanup.action

ehcleanup18:                                      ; preds = %invoke.cont16
  %5 = landingpad { ptr, i32 }
          cleanup
  call void @_ZNSt7__cxx1112basic_stringIcSt11char_traitsIcESaIcEED1Ev(ptr noundef nonnull align 8 dereferenceable(32) %ref.tmp11) #19
  br label %ehcleanup19

cleanup.action:                                   ; preds = %ehcleanup18.thread11, %ehcleanup18.thread
  %.pn410 = phi { ptr, i32 } [ %4, %ehcleanup18.thread ], [ %0, %ehcleanup18.thread11 ]
  call void @__cxa_free_exception(ptr %exception) #19
  br label %ehcleanup19

ehcleanup19:                                      ; preds = %ehcleanup18, %cleanup.action, %lpad8
  %.pn4.pn = phi { ptr, i32 } [ %.pn410, %cleanup.action ], [ %5, %ehcleanup18 ], [ %3, %lpad8 ]
  call void @_ZNSt7__cxx1118basic_stringstreamIcSt11char_traitsIcESaIcEED1Ev(ptr noundef nonnull align 8 dereferenceable(128) %ss) #19
  br label %eh.resume

return:                                           ; preds = %sw.bb1, %sw.bb
  %retval.0 = phi i32 [ %cond3, %sw.bb1 ], [ %cond, %sw.bb ]
  ret i32 %retval.0

eh.resume:                                        ; preds = %ehcleanup19, %ehcleanup
  %.pn4.pn.pn = phi { ptr, i32 } [ %.pn4.pn, %ehcleanup19 ], [ %.pn, %ehcleanup ]
  resume { ptr, i32 } %.pn4.pn.pn

unreachable:                                      ; preds = %invoke.cont16
  unreachable
}